(dp0
S'cassym'
p1
(lp2
sS'lydiar'
p3
(lp4
sS'tuckerm'
p5
(lp6
(lp7
S'jamest'
p8
aS'Thursday message'
p9
aS'This is a message sent on Thursday morning'
p10
aS'Thu Apr 20 13:29:31 2017'
p11
aasS'huntc'
p12
(lp13
(lp14
S'jamest'
p15
aS'This is a cool subject 1'
p16
aS'This is the email message that I sent to you huntc  --jamest'
p17
aS'Thu Mar  9 10:57:33 2017'
p18
aa(lp19
S'jamest'
p20
aS'This is a cool subject 2'
p21
aS'This is the email message that I sent to you huntc. I added this line to make it even cooler. --jamest'
p22
aS'Thu Mar  9 10:58:29 2017'
p23
aa(lp24
S'masterl'
p25
aS'This is a cool subject 3'
p26
aS'This is the email message that I sent to you huntc. My name is masterl. I own the world. You are now my slave.. --masterl'
p27
aS'Thu Mar  9 11:51:01 2017'
p28
aa(lp29
S'6721156092'
p30
aS'Email Subject'
p31
aS' This is my message. It is a good message. I think I should get more creative sometime. The End. --masterl\x00'
p32
aS'Fri Mar 24 09:36:57 2017'
p33
aa(lp34
S'1836052631'
p35
aS'Email Subject'
p36
aS' This is my message. It is a good message. I think I should get more creative sometime. The End. --masterl\x00'
p37
aS'Fri Mar 24 09:39:57 2017'
p38
aa(lp39
S'6071020594'
p40
aS'Email Subject'
p41
aS' This is my message. It is a good message. I think I should get more creative sometime. The End. --masterl\x00'
p42
aS'Tue Apr  4 05:44:47 2017'
p43
aa(lp44
S'5815813584'
p45
aS'Email Subject'
p46
aS' This is my message. It is a good message. I think I should get more creative sometime. The End. --masterl\x00'
p47
aS'Tue Apr  4 05:59:49 2017'
p48
aa(lp49
S'4117438716'
p50
aS'First msg to you peterm'
p51
aS'hey, how is it going. -huntc'
p52
aS'Tue Apr 11 13:24:33 2017'
p53
aa(lp54
S'peterm'
p55
aS'Hey'
p56
aS'Potassium bye#118d7d8f465516a225759108f27c8c3067d9d1f4'
p57
aS'Tue Apr 18 13:11:36 2017'
p58
aasS'peterm'
p59
(lp60
(lp61
S'9734936543'
p62
aS'first message'
p63
aS'hello frand, this is my first message to you'
p64
aS'Tue Apr 11 13:12:03 2017'
p65
aa(lp66
S'huntc'
p67
aS'123'
p68
aS'msg. This is a cool msg. - huntc'
p69
aS'Tue Apr 11 13:30:50 2017'
p70
aa(lp71
S'huntc'
p72
aS'subject'
p73
aS'email msg'
p74
aS'Tue Apr 11 13:32:55 2017'
p75
aasS'jamest'
p76
(lp77
(lp78
S'huntc'
p79
aS'This is a cool subject'
p80
aS'This is the email message that I sent to you James T'
p81
aS'Thu Mar  9 10:29:44 2017'
p82
aa(lp83
S'huntc'
p84
aS'Test'
p85
aS'This is a test message'
p86
aS'Tue Apr 11 23:14:45 2017'
p87
aasS'masterl'
p88
(lp89
s.