(dp0
S'cassym'
p1
(lp2
sS'lydiar'
p3
(lp4
sS'tuckerm'
p5
(lp6
sS'huntc'
p7
(lp8
(lp9
S'jamest'
p10
aS'This is a cool subject 1'
p11
aS'This is the email message that I sent to you huntc  --jamest'
p12
aS'Thu Mar  9 10:57:33 2017'
p13
aa(lp14
S'jamest'
p15
aS'This is a cool subject 2'
p16
aS'This is the email message that I sent to you huntc. I added this line to make it even cooler. --jamest'
p17
aS'Thu Mar  9 10:58:29 2017'
p18
aa(lp19
S'masterl'
p20
aS'This is a cool subject 3'
p21
aS'This is the email message that I sent to you huntc. My name is masterl. I own the world. You are now my slave.. --masterl'
p22
aS'Thu Mar  9 11:51:01 2017'
p23
aa(lp24
S'masterl'
p25
aS'Christopher Loves Tori!!!'
p26
aS'Once upon a time a beautiful girl named Tori fell in love with a boy named Christopher. Then they got engaged and will live happily ever after. The End. --masterl'
p27
aS'Thu Mar  9 12:15:28 2017'
p28
aa(lp29
S'6721156092'
p30
aS'Email Subject'
p31
aS' This is my message. It is a good message. I think I should get more creative sometime. The End. --masterl\x00'
p32
aS'Fri Mar 24 09:36:57 2017'
p33
aa(lp34
S'1836052631'
p35
aS'Email Subject'
p36
aS' This is my message. It is a good message. I think I should get more creative sometime. The End. --masterl\x00'
p37
aS'Fri Mar 24 09:39:57 2017'
p38
aa(lp39
S'7760911321'
p40
aS'Email Subject'
p41
aS' This is my message. It is a good message. I think I should get more creative sometime. The End. --masterl\x00'
p42
aS'Fri Mar 24 09:51:41 2017'
p43
aasS'peterm'
p44
(lp45
sS'jamest'
p46
(lp47
(lp48
S'huntc'
p49
aS'This is a cool subject'
p50
aS'This is the email message that I sent to you James T'
p51
aS'Thu Mar  9 10:29:44 2017'
p52
aasS'masterl'
p53
(lp54
s.