(dp0
S'cassym'
p1
(lp2
sS'lydiar'
p3
(lp4
sS'tuckerm'
p5
(lp6
sS'huntc'
p7
(lp8
(lp9
S'jamest'
p10
aS'This is a cool subject 1'
p11
aS'This is the email message that I sent to you huntc  --jamest'
p12
aS'Thu Mar  9 10:57:33 2017'
p13
aa(lp14
S'jamest'
p15
aS'This is a cool subject 2'
p16
aS'This is the email message that I sent to you huntc. I added this line to make it even cooler. --jamest'
p17
aS'Thu Mar  9 10:58:29 2017'
p18
aa(lp19
S'masterl'
p20
aS'This is a cool subject 3'
p21
aS'This is the email message that I sent to you huntc. My name is masterl. I own the world. You are now my slave.. --masterl'
p22
aS'Thu Mar  9 11:51:01 2017'
p23
aa(lp24
S'6721156092'
p25
aS'Email Subject'
p26
aS' This is my message. It is a good message. I think I should get more creative sometime. The End. --masterl\x00'
p27
aS'Fri Mar 24 09:36:57 2017'
p28
aa(lp29
S'1836052631'
p30
aS'Email Subject'
p31
aS' This is my message. It is a good message. I think I should get more creative sometime. The End. --masterl\x00'
p32
aS'Fri Mar 24 09:39:57 2017'
p33
aa(lp34
S'6071020594'
p35
aS'Email Subject'
p36
aS' This is my message. It is a good message. I think I should get more creative sometime. The End. --masterl\x00'
p37
aS'Tue Apr  4 05:44:47 2017'
p38
aa(lp39
S'5815813584'
p40
aS'Email Subject'
p41
aS' This is my message. It is a good message. I think I should get more creative sometime. The End. --masterl\x00'
p42
aS'Tue Apr  4 05:59:49 2017'
p43
aa(lp44
S'4117438716'
p45
aS'First msg to you peterm'
p46
aS'hey, how is it going. -huntc'
p47
aS'Tue Apr 11 13:24:33 2017'
p48
aa(lp49
S'peterm'
p50
aS'Hey'
p51
aS'Potassium bye#118d7d8f465516a225759108f27c8c3067d9d1f4'
p52
aS'Tue Apr 18 13:11:36 2017'
p53
aasS'peterm'
p54
(lp55
(lp56
S'9734936543'
p57
aS'first message'
p58
aS'hello frand, this is my first message to you'
p59
aS'Tue Apr 11 13:12:03 2017'
p60
aa(lp61
S'huntc'
p62
aS'123'
p63
aS'msg. This is a cool msg. - huntc'
p64
aS'Tue Apr 11 13:30:50 2017'
p65
aa(lp66
S'huntc'
p67
aS'subject'
p68
aS'email msg'
p69
aS'Tue Apr 11 13:32:55 2017'
p70
aasS'jamest'
p71
(lp72
(lp73
S'huntc'
p74
aS'This is a cool subject'
p75
aS'This is the email message that I sent to you James T'
p76
aS'Thu Mar  9 10:29:44 2017'
p77
aa(lp78
S'huntc'
p79
aS'Test'
p80
aS'This is a test message'
p81
aS'Tue Apr 11 23:14:45 2017'
p82
aasS'masterl'
p83
(lp84
s.